target datalayout = "e-m:e-p270:32:32-p271:32:32-p272:64:64-i64:64-i128:128-f80:128-n8:16:32:64-S128"
target triple = "x86_64-pc-linux-gnu"

%struct.AVFilterContext = type { ptr, ptr, ptr, ptr, ptr, i32, ptr, ptr, i32, ptr, ptr, i32, i32, ptr, ptr, ptr, ptr, i32, ptr, i32, i32 }
%struct.FloodfillContext = type { ptr, i32, i32, [4 x i32], [4 x i32], [4 x i32], i32, i32, i32, ptr, ptr, ptr, ptr }
%struct.AVFilterLink = type { ptr, ptr, ptr, ptr, i32, i32, i32, i32, %struct.AVRational, i32, i32, i32, %struct.AVChannelLayout, %struct.AVRational, ptr, i32, %struct.AVFilterFormatsConfig, %struct.AVFilterFormatsConfig }
%struct.AVChannelLayout = type { i32, i32, %union.anon.1, ptr }
%union.anon.1 = type { i64 }
%struct.AVRational = type { i32, i32 }
%struct.AVFilterFormatsConfig = type { ptr, ptr, ptr, ptr, ptr }
%struct.AVPixFmtDescriptor = type { ptr, i8, i8, i8, i64, [4 x %struct.AVComponentDescriptor], ptr }
%struct.AVComponentDescriptor = type { i32, i32, i32, i32, i32 }

; Function Attrs: nounwind uwtable
define internal i32 @config_input(ptr noundef %0) #1 {
  %2 = alloca i32, align 4
  %3 = alloca ptr, align 8
  %4 = alloca ptr, align 8
  %5 = alloca ptr, align 8
  %6 = alloca ptr, align 8
  %7 = alloca i32, align 4
  %8 = alloca i32, align 4
  store ptr %0, ptr %3, align 8, !tbaa !24
  call void @llvm.lifetime.start.p0(i64 8, ptr %4) #4
  %9 = load ptr, ptr %3, align 8, !tbaa !24
  %10 = getelementptr inbounds nuw %struct.AVFilterLink, ptr %9, i32 0, i32 5
  %11 = load i32, ptr %10, align 4, !tbaa !63
  %12 = call ptr @av_pix_fmt_desc_get(i32 noundef %11)
  store ptr %12, ptr %4, align 8, !tbaa !64
  call void @llvm.lifetime.start.p0(i64 8, ptr %5) #4
  %13 = load ptr, ptr %3, align 8, !tbaa !24
  %14 = getelementptr inbounds nuw %struct.AVFilterLink, ptr %13, i32 0, i32 2
  %15 = load ptr, ptr %14, align 8, !tbaa !28
  store ptr %15, ptr %5, align 8, !tbaa !4
  call void @llvm.lifetime.start.p0(i64 8, ptr %6) #4
  %16 = load ptr, ptr %5, align 8, !tbaa !4
  %17 = getelementptr inbounds nuw %struct.AVFilterContext, ptr %16, i32 0, i32 9
  %18 = load ptr, ptr %17, align 8, !tbaa !9
  store ptr %18, ptr %6, align 8, !tbaa !22
  call void @llvm.lifetime.start.p0(i64 4, ptr %7) #4
  %19 = load ptr, ptr %3, align 8, !tbaa !24
  %20 = getelementptr inbounds nuw %struct.AVFilterLink, ptr %19, i32 0, i32 5
  %21 = load i32, ptr %20, align 4, !tbaa !63
  %22 = call i32 @av_pix_fmt_count_planes(i32 noundef %21)
  %23 = load ptr, ptr %6, align 8, !tbaa !22
  %24 = getelementptr inbounds nuw %struct.FloodfillContext, ptr %23, i32 0, i32 6
  store i32 %22, ptr %24, align 8, !tbaa !49
  %25 = load ptr, ptr %4, align 8, !tbaa !64
  %26 = getelementptr inbounds nuw %struct.AVPixFmtDescriptor, ptr %25, i32 0, i32 5
  %27 = getelementptr inbounds [4 x %struct.AVComponentDescriptor], ptr %26, i64 0, i64 0
  %28 = getelementptr inbounds nuw %struct.AVComponentDescriptor, ptr %27, i32 0, i32 4
  %29 = load i32, ptr %28, align 8, !tbaa !66
  store i32 %29, ptr %7, align 4, !tbaa !36
  %30 = load i32, ptr %7, align 4, !tbaa !36
  %31 = icmp eq i32 %30, 8
  br i1 %31, label %32, label %58

32:                                               ; preds = %1
  %33 = load ptr, ptr %6, align 8, !tbaa !22
  %34 = getelementptr inbounds nuw %struct.FloodfillContext, ptr %33, i32 0, i32 6
  %35 = load i32, ptr %34, align 8, !tbaa !49
  switch i32 %35, label %57 [
    i32 1, label %36
    i32 3, label %43
    i32 4, label %50
  ]

36:                                               ; preds = %32
  %37 = load ptr, ptr %6, align 8, !tbaa !22
  %38 = getelementptr inbounds nuw %struct.FloodfillContext, ptr %37, i32 0, i32 11
  store ptr @set_pixel1, ptr %38, align 8, !tbaa !60
  %39 = load ptr, ptr %6, align 8, !tbaa !22
  %40 = getelementptr inbounds nuw %struct.FloodfillContext, ptr %39, i32 0, i32 10
  store ptr @is_same1, ptr %40, align 8, !tbaa !52
  %41 = load ptr, ptr %6, align 8, !tbaa !22
  %42 = getelementptr inbounds nuw %struct.FloodfillContext, ptr %41, i32 0, i32 12
  store ptr @pick_pixel1, ptr %42, align 8, !tbaa !48
  br label %57

43:                                               ; preds = %32
  %44 = load ptr, ptr %6, align 8, !tbaa !22
  %45 = getelementptr inbounds nuw %struct.FloodfillContext, ptr %44, i32 0, i32 11
  store ptr @set_pixel3, ptr %45, align 8, !tbaa !60
  %46 = load ptr, ptr %6, align 8, !tbaa !22
  %47 = getelementptr inbounds nuw %struct.FloodfillContext, ptr %46, i32 0, i32 10
  store ptr @is_same3, ptr %47, align 8, !tbaa !52
  %48 = load ptr, ptr %6, align 8, !tbaa !22
  %49 = getelementptr inbounds nuw %struct.FloodfillContext, ptr %48, i32 0, i32 12
  store ptr @pick_pixel3, ptr %49, align 8, !tbaa !48
  br label %57

50:                                               ; preds = %32
  %51 = load ptr, ptr %6, align 8, !tbaa !22
  %52 = getelementptr inbounds nuw %struct.FloodfillContext, ptr %51, i32 0, i32 11
  store ptr @set_pixel4, ptr %52, align 8, !tbaa !60
  %53 = load ptr, ptr %6, align 8, !tbaa !22
  %54 = getelementptr inbounds nuw %struct.FloodfillContext, ptr %53, i32 0, i32 10
  store ptr @is_same4, ptr %54, align 8, !tbaa !52
  %55 = load ptr, ptr %6, align 8, !tbaa !22
  %56 = getelementptr inbounds nuw %struct.FloodfillContext, ptr %55, i32 0, i32 12
  store ptr @pick_pixel4, ptr %56, align 8, !tbaa !48
  br label %57

57:                                               ; preds = %32, %50, %43, %36
  br label %84

58:                                               ; preds = %1
  %59 = load ptr, ptr %6, align 8, !tbaa !22
  %60 = getelementptr inbounds nuw %struct.FloodfillContext, ptr %59, i32 0, i32 6
  %61 = load i32, ptr %60, align 8, !tbaa !49
  switch i32 %61, label %83 [
    i32 1, label %62
    i32 3, label %69
    i32 4, label %76
  ]

62:                                               ; preds = %58
  %63 = load ptr, ptr %6, align 8, !tbaa !22
  %64 = getelementptr inbounds nuw %struct.FloodfillContext, ptr %63, i32 0, i32 11
  store ptr @set_pixel1_16, ptr %64, align 8, !tbaa !60
  %65 = load ptr, ptr %6, align 8, !tbaa !22
  %66 = getelementptr inbounds nuw %struct.FloodfillContext, ptr %65, i32 0, i32 10
  store ptr @is_same1_16, ptr %66, align 8, !tbaa !52
  %67 = load ptr, ptr %6, align 8, !tbaa !22
  %68 = getelementptr inbounds nuw %struct.FloodfillContext, ptr %67, i32 0, i32 12
  store ptr @pick_pixel1_16, ptr %68, align 8, !tbaa !48
  br label %83

69:                                               ; preds = %58
  %70 = load ptr, ptr %6, align 8, !tbaa !22
  %71 = getelementptr inbounds nuw %struct.FloodfillContext, ptr %70, i32 0, i32 11
  store ptr @set_pixel3_16, ptr %71, align 8, !tbaa !60
  %72 = load ptr, ptr %6, align 8, !tbaa !22
  %73 = getelementptr inbounds nuw %struct.FloodfillContext, ptr %72, i32 0, i32 10
  store ptr @is_same3_16, ptr %73, align 8, !tbaa !52
  %74 = load ptr, ptr %6, align 8, !tbaa !22
  %75 = getelementptr inbounds nuw %struct.FloodfillContext, ptr %74, i32 0, i32 12
  store ptr @pick_pixel3_16, ptr %75, align 8, !tbaa !48
  br label %83

76:                                               ; preds = %58
  %77 = load ptr, ptr %6, align 8, !tbaa !22
  %78 = getelementptr inbounds nuw %struct.FloodfillContext, ptr %77, i32 0, i32 11
  store ptr @set_pixel4_16, ptr %78, align 8, !tbaa !60
  %79 = load ptr, ptr %6, align 8, !tbaa !22
  %80 = getelementptr inbounds nuw %struct.FloodfillContext, ptr %79, i32 0, i32 10
  store ptr @is_same4_16, ptr %80, align 8, !tbaa !52
  %81 = load ptr, ptr %6, align 8, !tbaa !22
  %82 = getelementptr inbounds nuw %struct.FloodfillContext, ptr %81, i32 0, i32 12
  store ptr @pick_pixel4_16, ptr %82, align 8, !tbaa !48
  br label %83

83:                                               ; preds = %58, %76, %69, %62
  br label %84

84:                                               ; preds = %83, %57
  %85 = load ptr, ptr %6, align 8, !tbaa !22
  %86 = getelementptr inbounds nuw %struct.FloodfillContext, ptr %85, i32 0, i32 7
  store i32 0, ptr %86, align 4, !tbaa !59
  %87 = load ptr, ptr %6, align 8, !tbaa !22
  %88 = getelementptr inbounds nuw %struct.FloodfillContext, ptr %87, i32 0, i32 8
  store i32 0, ptr %88, align 8, !tbaa !54
  %89 = load ptr, ptr %3, align 8, !tbaa !24
  %90 = getelementptr inbounds nuw %struct.AVFilterLink, ptr %89, i32 0, i32 6
  %91 = load i32, ptr %90, align 8, !tbaa !68
  %92 = load ptr, ptr %3, align 8, !tbaa !24
  %93 = getelementptr inbounds nuw %struct.AVFilterLink, ptr %92, i32 0, i32 7
  %94 = load i32, ptr %93, align 4, !tbaa !69
  %95 = mul nsw i32 %91, %94
  %96 = sext i32 %95 to i64
  %97 = call noalias ptr @av_calloc(i64 noundef %96, i64 noundef 16)
  %98 = load ptr, ptr %6, align 8, !tbaa !22
  %99 = getelementptr inbounds nuw %struct.FloodfillContext, ptr %98, i32 0, i32 9
  store ptr %97, ptr %99, align 8, !tbaa !53
  %100 = load ptr, ptr %6, align 8, !tbaa !22
  %101 = getelementptr inbounds nuw %struct.FloodfillContext, ptr %100, i32 0, i32 9
  %102 = load ptr, ptr %101, align 8, !tbaa !53
  %103 = icmp ne ptr %102, null
  br i1 %103, label %105, label %104

104:                                              ; preds = %84
  store i32 -12, ptr %2, align 4
  store i32 1, ptr %8, align 4
  br label %106

105:                                              ; preds = %84
  store i32 0, ptr %2, align 4
  store i32 1, ptr %8, align 4
  br label %106

106:                                              ; preds = %105, %104
  call void @llvm.lifetime.end.p0(i64 4, ptr %7) #4
  call void @llvm.lifetime.end.p0(i64 8, ptr %6) #4
  call void @llvm.lifetime.end.p0(i64 8, ptr %5) #4
  call void @llvm.lifetime.end.p0(i64 8, ptr %4) #4
  %107 = load i32, ptr %2, align 4
  ret i32 %107
}