; Function Attrs: nounwind uwtable
define internal range(i32 -12, 1) i32 @config_input(ptr noundef readonly captures(none) %0) #1 {
  %2 = getelementptr inbounds nuw i8, ptr %0, i64 36
  %3 = load i32, ptr %2, align 4, !tbaa !60
  %4 = tail call ptr @av_pix_fmt_desc_get(i32 noundef %3) #7
  %5 = getelementptr inbounds nuw i8, ptr %0, i64 16
  %6 = load ptr, ptr %5, align 8, !tbaa !22
  %7 = getelementptr inbounds nuw i8, ptr %6, i64 72
  %8 = load ptr, ptr %7, align 8, !tbaa !4
  %9 = load i32, ptr %2, align 4, !tbaa !60
  %10 = tail call i32 @av_pix_fmt_count_planes(i32 noundef %9) #7
  %11 = getelementptr inbounds nuw i8, ptr %8, i64 64
  store i32 %10, ptr %11, align 8, !tbaa !44
  %12 = getelementptr inbounds nuw i8, ptr %4, i64 40
  %13 = load i32, ptr %12, align 8, !tbaa !61
  %14 = icmp eq i32 %13, 8
  br i1 %14, label %15, label %18

15:                                               ; preds = %1
  switch i32 %10, label %24 [
    i32 1, label %.sink.split
    i32 3, label %16
    i32 4, label %17
  ]

16:                                               ; preds = %15
  br label %.sink.split

17:                                               ; preds = %15
  br label %.sink.split

18:                                               ; preds = %1
  switch i32 %10, label %24 [
    i32 1, label %.sink.split
    i32 3, label %19
    i32 4, label %20
  ]

19:                                               ; preds = %18
  br label %.sink.split

20:                                               ; preds = %18
  br label %.sink.split

.sink.split:                                      ; preds = %18, %15, %17, %16, %20, %19
  %set_pixel1_16.sink = phi ptr [ @set_pixel3_16, %19 ], [ @set_pixel4_16, %20 ], [ @set_pixel3, %16 ], [ @set_pixel4, %17 ], [ @set_pixel1, %15 ], [ @set_pixel1_16, %18 ]
  %is_same1_16.sink = phi ptr [ @is_same3_16, %19 ], [ @is_same4_16, %20 ], [ @is_same3, %16 ], [ @is_same4, %17 ], [ @is_same1, %15 ], [ @is_same1_16, %18 ]
  %pick_pixel1_16.sink = phi ptr [ @pick_pixel3_16, %19 ], [ @pick_pixel4_16, %20 ], [ @pick_pixel3, %16 ], [ @pick_pixel4, %17 ], [ @pick_pixel1, %15 ], [ @pick_pixel1_16, %18 ]
  %21 = getelementptr inbounds nuw i8, ptr %8, i64 96
  store ptr %set_pixel1_16.sink, ptr %21, align 8, !tbaa !55
  %22 = getelementptr inbounds nuw i8, ptr %8, i64 88
  store ptr %is_same1_16.sink, ptr %22, align 8, !tbaa !47
  %23 = getelementptr inbounds nuw i8, ptr %8, i64 104
  store ptr %pick_pixel1_16.sink, ptr %23, align 8, !tbaa !43
  br label %24

24:                                               ; preds = %.sink.split, %18, %15
  %25 = getelementptr inbounds nuw i8, ptr %8, i64 68
  store i32 0, ptr %25, align 4, !tbaa !54
  %26 = getelementptr inbounds nuw i8, ptr %8, i64 72
  store i32 0, ptr %26, align 8, !tbaa !49
  %27 = getelementptr inbounds nuw i8, ptr %0, i64 40
  %28 = load i32, ptr %27, align 8, !tbaa !63
  %29 = getelementptr inbounds nuw i8, ptr %0, i64 44
  %30 = load i32, ptr %29, align 4, !tbaa !64
  %31 = mul nsw i32 %30, %28
  %32 = sext i32 %31 to i64
  %33 = tail call noalias ptr @av_calloc(i64 noundef %32, i64 noundef 16) #7
  %34 = getelementptr inbounds nuw i8, ptr %8, i64 80
  store ptr %33, ptr %34, align 8, !tbaa !48
  %.not = icmp eq ptr %33, null
  %. = select i1 %.not, i32 -12, i32 0
  ret i32 %.
}